target datalayout = "e-m:e-p270:32:32-p271:32:32-p272:64:64-i64:64-i128:128-f80:128-n8:16:32:64-S128"
target triple = "x86_64-pc-linux-gnu"

%"class.duckdb::CompressionInfo" = type { i64 }
%"struct.duckdb::roaring::RoaringAnalyzeState" = type { %"struct.duckdb::AnalyzeState", %"class.duckdb::unique_ptr.64", i16, i16, i16, i8, i16, i64, i64, i64, i64, i64, i64, %"struct.duckdb::roaring::ContainerMetadataCollection", %"class.duckdb::vector.79" }
%"struct.duckdb::AnalyzeState" = type { ptr, %"class.duckdb::CompressionInfo" }
%"class.duckdb::unique_ptr.64" = type { %"class.std::unique_ptr.65" }
%"class.std::unique_ptr.65" = type { %"struct.std::__uniq_ptr_data.66" }
%"struct.std::__uniq_ptr_data.66" = type { %"class.std::__uniq_ptr_impl.67" }
%"class.std::__uniq_ptr_impl.67" = type { %"class.std::tuple.68" }
%"class.std::tuple.68" = type { %"struct.std::_Tuple_impl.69" }
%"struct.std::_Tuple_impl.69" = type { %"struct.std::_Head_base.72" }
%"struct.std::_Head_base.72" = type { ptr }
%"struct.duckdb::roaring::ContainerMetadataCollection" = type { %"class.duckdb::vector.73", %"class.duckdb::vector.73", %"class.duckdb::vector.73", i64, i64, i64 }
%"class.duckdb::vector.73" = type { %"class.std::vector.74" }
%"class.std::vector.74" = type { %"struct.std::_Vector_base.75" }
%"struct.std::_Vector_base.75" = type { %"struct.std::_Vector_base<unsigned char, std::allocator<unsigned char>>::_Vector_impl" }
%"struct.std::_Vector_base<unsigned char, std::allocator<unsigned char>>::_Vector_impl" = type { %"struct.std::_Vector_base<unsigned char, std::allocator<unsigned char>>::_Vector_impl_data" }
%"struct.std::_Vector_base<unsigned char, std::allocator<unsigned char>>::_Vector_impl_data" = type { ptr, ptr, ptr }
%"class.duckdb::vector.79" = type { %"class.std::vector.80" }
%"class.std::vector.80" = type { %"struct.std::_Vector_base.81" }
%"struct.std::_Vector_base.81" = type { %"struct.std::_Vector_base<duckdb::roaring::ContainerMetadata, std::allocator<duckdb::roaring::ContainerMetadata>>::_Vector_impl" }
%"struct.std::_Vector_base<duckdb::roaring::ContainerMetadata, std::allocator<duckdb::roaring::ContainerMetadata>>::_Vector_impl" = type { %"struct.std::_Vector_base<duckdb::roaring::ContainerMetadata, std::allocator<duckdb::roaring::ContainerMetadata>>::_Vector_impl_data" }
%"struct.std::_Vector_base<duckdb::roaring::ContainerMetadata, std::allocator<duckdb::roaring::ContainerMetadata>>::_Vector_impl_data" = type { ptr, ptr, ptr }

; Function Attrs: mustprogress nounwind uwtable
define linkonce_odr noundef i64 @_ZNK6duckdb15CompressionInfo12GetBlockSizeEv(ptr noundef nonnull align 8 dereferenceable(8) %0) #2 comdat align 2 {
  %2 = alloca ptr, align 8
  store ptr %0, ptr %2, align 8, !tbaa !89
  %3 = load ptr, ptr %2, align 8
  %4 = getelementptr inbounds nuw %"class.duckdb::CompressionInfo", ptr %3, i32 0, i32 0
  %5 = load i64, ptr %4, align 8, !tbaa !91
  ret i64 %5
}

; Function Attrs: mustprogress uwtable
define noundef zeroext i1 @_ZN6duckdb7roaring19RoaringAnalyzeState23HasEnoughSpaceInSegmentEm(ptr noundef nonnull align 8 dereferenceable(208) %0, i64 noundef %1) #0 align 2 {
  %3 = alloca i1, align 1
  %4 = alloca ptr, align 8
  %5 = alloca i64, align 8
  %6 = alloca i64, align 8
  %7 = alloca i64, align 8
  %8 = alloca i32, align 4
  store ptr %0, ptr %4, align 8, !tbaa !97
  store i64 %1, ptr %5, align 8, !tbaa !8
  %9 = load ptr, ptr %4, align 8
  call void @llvm.lifetime.start.p0(i64 8, ptr %6) #19
  %10 = getelementptr inbounds nuw %"struct.duckdb::roaring::RoaringAnalyzeState", ptr %9, i32 0, i32 7
  %11 = load i64, ptr %10, align 8, !tbaa !132
  %12 = getelementptr inbounds nuw %"struct.duckdb::roaring::RoaringAnalyzeState", ptr %9, i32 0, i32 8
  %13 = load i64, ptr %12, align 8, !tbaa !131
  %14 = add i64 %11, %13
  store i64 %14, ptr %6, align 8, !tbaa !8
  call void @llvm.lifetime.start.p0(i64 8, ptr %7) #19
  %15 = getelementptr inbounds nuw %"struct.duckdb::AnalyzeState", ptr %9, i32 0, i32 1
  %16 = call noundef i64 @_ZNK6duckdb15CompressionInfo12GetBlockSizeEv(ptr noundef nonnull align 8 dereferenceable(8) %15)
  %17 = load i64, ptr %6, align 8, !tbaa !8
  %18 = sub i64 %16, %17
  store i64 %18, ptr %7, align 8, !tbaa !8
  %19 = load i64, ptr %5, align 8, !tbaa !8
  %20 = load i64, ptr %7, align 8, !tbaa !8
  %21 = icmp ugt i64 %19, %20
  br i1 %21, label %22, label %23

22:                                               ; preds = %2
  store i1 false, ptr %3, align 1
  store i32 1, ptr %8, align 4
  br label %24

23:                                               ; preds = %2
  store i1 true, ptr %3, align 1
  store i32 1, ptr %8, align 4
  br label %24

24:                                               ; preds = %23, %22
  call void @llvm.lifetime.end.p0(i64 8, ptr %7) #19
  call void @llvm.lifetime.end.p0(i64 8, ptr %6) #19
  %25 = load i1, ptr %3, align 1
  ret i1 %25
}