; Function Attrs: mustprogress nofree norecurse nosync nounwind willreturn memory(argmem: read) uwtable
define noundef zeroext i1 @_ZN6duckdb7roaring19RoaringAnalyzeState23HasEnoughSpaceInSegmentEm(ptr noundef nonnull readonly align 8 captures(none) dereferenceable(208) %0, i64 noundef %1) local_unnamed_addr #9 align 2 {
  %3 = getelementptr inbounds nuw i8, ptr %0, i64 40
  %4 = load i64, ptr %3, align 8, !tbaa !114
  %5 = getelementptr inbounds nuw i8, ptr %0, i64 48
  %6 = load i64, ptr %5, align 8, !tbaa !115
  %7 = getelementptr inbounds nuw i8, ptr %0, i64 8
  %8 = load i64, ptr %7, align 8, !tbaa !83
  %9 = add i64 %6, %4
  %10 = sub i64 %8, %9
  %11 = icmp ule i64 %1, %10
  ret i1 %11
}